target datalayout = "e-m:e-p270:32:32-p271:32:32-p272:64:64-i64:64-i128:128-f80:128-n8:16:32:64-S128"
target triple = "x86_64-unknown-linux-gnu"

%"class.cvc5::internal::NodeTemplate.33" = type { ptr }
%"class.cvc5::internal::TypeNode" = type { ptr }
%"class.cvc5::internal::expr::NodeValue" = type { i64, i16, i32, [0 x ptr] }

; Function Attrs: mustprogress nounwind uwtable
define linkonce_odr hidden void @_ZNK4cvc58internal12NodeTemplateILb0EE21assertTNodeNotExpiredEv(ptr noundef nonnull align 8 dereferenceable(8) %this) #6 comdat align 2 {
entry:
  %this.addr = alloca ptr, align 8
  store ptr %this, ptr %this.addr, align 8
  ret void
}

; Function Attrs: mustprogress uwtable
define linkonce_odr hidden noundef i32 @_ZNK4cvc58internal12NodeTemplateILb0EE7getKindEv(ptr noundef nonnull align 8 dereferenceable(8) %this) #4 comdat align 2 {
entry:
  %this.addr = alloca ptr, align 8
  store ptr %this, ptr %this.addr, align 8
  %this1 = load ptr, ptr %this.addr, align 8
  call void @_ZNK4cvc58internal12NodeTemplateILb0EE21assertTNodeNotExpiredEv(ptr noundef nonnull align 8 dereferenceable(8) %this1)
  %d_nv = getelementptr inbounds %"class.cvc5::internal::NodeTemplate.33", ptr %this1, i32 0, i32 0
  %0 = load ptr, ptr %d_nv, align 8
  %d_kind = getelementptr inbounds %"class.cvc5::internal::expr::NodeValue", ptr %0, i32 0, i32 1
  %bf.load = load i16, ptr %d_kind, align 8
  %bf.clear = and i16 %bf.load, 1023
  %bf.cast = zext i16 %bf.clear to i32
  ret i32 %bf.cast
}

; Function Attrs: mustprogress uwtable
define hidden noundef zeroext i1 @_ZN4cvc58internal13preprocessing6passes8BVToBool19isConvertibleBvTermENS0_12NodeTemplateILb0EEE(ptr noundef nonnull align 8 dereferenceable(216) %this, ptr noundef %node) #4 align 2 personality ptr @__gxx_personality_v0 {
entry:
  %retval = alloca i1, align 1
  %this.addr = alloca ptr, align 8
  %node.indirect_addr = alloca ptr, align 8
  %ref.tmp = alloca %"class.cvc5::internal::TypeNode", align 8
  %exn.slot = alloca ptr, align 8
  %ehselector.slot = alloca i32, align 4
  %ref.tmp2 = alloca %"class.cvc5::internal::TypeNode", align 8
  %cleanup.cond = alloca i1, align 1
  %kind = alloca i32, align 4
  store ptr %this, ptr %this.addr, align 8
  store ptr %node, ptr %node.indirect_addr, align 8
  call void @_ZNK4cvc58internal12NodeTemplateILb0EE7getTypeEb(ptr sret(%"class.cvc5::internal::TypeNode") align 8 %ref.tmp, ptr noundef nonnull align 8 dereferenceable(8) %node, i1 noundef zeroext false)
  store i1 false, ptr %cleanup.cond, align 1
  %call = invoke noundef zeroext i1 @_ZNK4cvc58internal8TypeNode11isBitVectorEv(ptr noundef nonnull align 8 dereferenceable(8) %ref.tmp)
          to label %invoke.cont unwind label %lpad

invoke.cont:                                      ; preds = %entry
  br i1 %call, label %lor.rhs, label %lor.end

lor.rhs:                                          ; preds = %invoke.cont
  invoke void @_ZNK4cvc58internal12NodeTemplateILb0EE7getTypeEb(ptr sret(%"class.cvc5::internal::TypeNode") align 8 %ref.tmp2, ptr noundef nonnull align 8 dereferenceable(8) %node, i1 noundef zeroext false)
          to label %invoke.cont3 unwind label %lpad

invoke.cont3:                                     ; preds = %lor.rhs
  store i1 true, ptr %cleanup.cond, align 1
  %call6 = invoke noundef i32 @_ZNK4cvc58internal8TypeNode16getBitVectorSizeEv(ptr noundef nonnull align 8 dereferenceable(8) %ref.tmp2)
          to label %invoke.cont5 unwind label %lpad4

invoke.cont5:                                     ; preds = %invoke.cont3
  %cmp = icmp ne i32 %call6, 1
  br label %lor.end

lor.end:                                          ; preds = %invoke.cont5, %invoke.cont
  %0 = phi i1 [ true, %invoke.cont ], [ %cmp, %invoke.cont5 ]
  %cleanup.is_active = load i1, ptr %cleanup.cond, align 1
  br i1 %cleanup.is_active, label %cleanup.action, label %cleanup.done

cleanup.action:                                   ; preds = %lor.end
  call void @_ZN4cvc58internal8TypeNodeD2Ev(ptr noundef nonnull align 8 dereferenceable(8) %ref.tmp2) #3
  br label %cleanup.done

cleanup.done:                                     ; preds = %cleanup.action, %lor.end
  call void @_ZN4cvc58internal8TypeNodeD2Ev(ptr noundef nonnull align 8 dereferenceable(8) %ref.tmp) #3
  br i1 %0, label %if.then, label %if.end

if.then:                                          ; preds = %cleanup.done
  store i1 false, ptr %retval, align 1
  br label %return

lpad:                                             ; preds = %lor.rhs, %entry
  %1 = landingpad { ptr, i32 }
          cleanup
  %2 = extractvalue { ptr, i32 } %1, 0
  store ptr %2, ptr %exn.slot, align 8
  %3 = extractvalue { ptr, i32 } %1, 1
  store i32 %3, ptr %ehselector.slot, align 4
  br label %ehcleanup

lpad4:                                            ; preds = %invoke.cont3
  %4 = landingpad { ptr, i32 }
          cleanup
  %5 = extractvalue { ptr, i32 } %4, 0
  store ptr %5, ptr %exn.slot, align 8
  %6 = extractvalue { ptr, i32 } %4, 1
  store i32 %6, ptr %ehselector.slot, align 4
  %cleanup.is_active7 = load i1, ptr %cleanup.cond, align 1
  br i1 %cleanup.is_active7, label %cleanup.action8, label %cleanup.done9

cleanup.action8:                                  ; preds = %lpad4
  call void @_ZN4cvc58internal8TypeNodeD2Ev(ptr noundef nonnull align 8 dereferenceable(8) %ref.tmp2) #3
  br label %cleanup.done9

cleanup.done9:                                    ; preds = %cleanup.action8, %lpad4
  br label %ehcleanup

ehcleanup:                                        ; preds = %cleanup.done9, %lpad
  call void @_ZN4cvc58internal8TypeNodeD2Ev(ptr noundef nonnull align 8 dereferenceable(8) %ref.tmp) #3
  br label %eh.resume

if.end:                                           ; preds = %cleanup.done
  %call10 = call noundef i32 @_ZNK4cvc58internal12NodeTemplateILb0EE7getKindEv(ptr noundef nonnull align 8 dereferenceable(8) %node)
  store i32 %call10, ptr %kind, align 4
  %7 = load i32, ptr %kind, align 4
  %cmp11 = icmp eq i32 %7, 83
  br i1 %cmp11, label %if.then23, label %lor.lhs.false

lor.lhs.false:                                    ; preds = %if.end
  %8 = load i32, ptr %kind, align 4
  %cmp12 = icmp eq i32 %8, 23
  br i1 %cmp12, label %if.then23, label %lor.lhs.false13

lor.lhs.false13:                                  ; preds = %lor.lhs.false
  %9 = load i32, ptr %kind, align 4
  %cmp14 = icmp eq i32 %9, 86
  br i1 %cmp14, label %if.then23, label %lor.lhs.false15

lor.lhs.false15:                                  ; preds = %lor.lhs.false13
  %10 = load i32, ptr %kind, align 4
  %cmp16 = icmp eq i32 %10, 88
  br i1 %cmp16, label %if.then23, label %lor.lhs.false17

lor.lhs.false17:                                  ; preds = %lor.lhs.false15
  %11 = load i32, ptr %kind, align 4
  %cmp18 = icmp eq i32 %11, 90
  br i1 %cmp18, label %if.then23, label %lor.lhs.false19

lor.lhs.false19:                                  ; preds = %lor.lhs.false17
  %12 = load i32, ptr %kind, align 4
  %cmp20 = icmp eq i32 %12, 89
  br i1 %cmp20, label %if.then23, label %lor.lhs.false21

lor.lhs.false21:                                  ; preds = %lor.lhs.false19
  %13 = load i32, ptr %kind, align 4
  %cmp22 = icmp eq i32 %13, 87
  br i1 %cmp22, label %if.then23, label %if.end24

if.then23:                                        ; preds = %lor.lhs.false21, %lor.lhs.false19, %lor.lhs.false17, %lor.lhs.false15, %lor.lhs.false13, %lor.lhs.false, %if.end
  store i1 true, ptr %retval, align 1
  br label %return

if.end24:                                         ; preds = %lor.lhs.false21
  store i1 false, ptr %retval, align 1
  br label %return

return:                                           ; preds = %if.end24, %if.then23, %if.then
  %14 = load i1, ptr %retval, align 1
  ret i1 %14

eh.resume:                                        ; preds = %ehcleanup
  %exn = load ptr, ptr %exn.slot, align 8
  %sel = load i32, ptr %ehselector.slot, align 4
  %lpad.val = insertvalue { ptr, i32 } poison, ptr %exn, 0
  %lpad.val25 = insertvalue { ptr, i32 } %lpad.val, i32 %sel, 1
  resume { ptr, i32 } %lpad.val25
}