; Function Attrs: mustprogress uwtable
define hidden noundef zeroext i1 @_ZN4cvc58internal13preprocessing6passes8BVToBool19isConvertibleBvTermENS0_12NodeTemplateILb0EEE(ptr nocapture nonnull readnone align 8 %this, ptr noundef nonnull %node) local_unnamed_addr #3 align 2 personality ptr @__gxx_personality_v0 {
entry:
  %ref.tmp = alloca %"class.cvc5::internal::TypeNode", align 8
  %ref.tmp2 = alloca %"class.cvc5::internal::TypeNode", align 8
  call void @_ZNK4cvc58internal12NodeTemplateILb0EE7getTypeEb(ptr nonnull sret(%"class.cvc5::internal::TypeNode") align 8 %ref.tmp, ptr noundef nonnull align 8 dereferenceable(8) %node, i1 noundef zeroext false)
  %call = invoke noundef zeroext i1 @_ZNK4cvc58internal8TypeNode11isBitVectorEv(ptr noundef nonnull align 8 dereferenceable(8) %ref.tmp)
          to label %invoke.cont unwind label %lpad

invoke.cont:                                      ; preds = %entry
  br i1 %call, label %lor.rhs, label %cleanup.done

lor.rhs:                                          ; preds = %invoke.cont
  invoke void @_ZNK4cvc58internal12NodeTemplateILb0EE7getTypeEb(ptr nonnull sret(%"class.cvc5::internal::TypeNode") align 8 %ref.tmp2, ptr noundef nonnull align 8 dereferenceable(8) %node, i1 noundef zeroext false)
          to label %invoke.cont3 unwind label %lpad

invoke.cont3:                                     ; preds = %lor.rhs
  %call6 = invoke noundef i32 @_ZNK4cvc58internal8TypeNode16getBitVectorSizeEv(ptr noundef nonnull align 8 dereferenceable(8) %ref.tmp2)
          to label %cleanup.action unwind label %lpad4

cleanup.action:                                   ; preds = %invoke.cont3
  %cmp = icmp ne i32 %call6, 1
  %0 = load ptr, ptr %ref.tmp2, align 8
  %bf.load.i.i = load i64, ptr %0, align 8
  %1 = and i64 %bf.load.i.i, 1152920405095219200
  %cmp.not.i.i = icmp eq i64 %1, 1152920405095219200
  br i1 %cmp.not.i.i, label %cleanup.done, label %if.then.i.i

if.then.i.i:                                      ; preds = %cleanup.action
  %bf.value.i.i = add i64 %bf.load.i.i, 1152920405095219200
  %bf.shl.i.i = and i64 %bf.value.i.i, 1152920405095219200
  %bf.clear7.i.i = and i64 %bf.load.i.i, -1152920405095219201
  %bf.set.i.i = or disjoint i64 %bf.shl.i.i, %bf.clear7.i.i
  store i64 %bf.set.i.i, ptr %0, align 8
  %cmp12.i.i = icmp eq i64 %bf.shl.i.i, 0
  br i1 %cmp12.i.i, label %if.then13.i.i, label %cleanup.done

if.then13.i.i:                                    ; preds = %if.then.i.i
  invoke void @_ZN4cvc58internal4expr9NodeValue15markForDeletionEv(ptr noundef nonnull align 8 dereferenceable(16) %0)
          to label %cleanup.done unwind label %terminate.lpad.i

terminate.lpad.i:                                 ; preds = %if.then13.i.i
  %2 = landingpad { ptr, i32 }
          catch ptr null
  %3 = extractvalue { ptr, i32 } %2, 0
  call void @__clang_call_terminate(ptr %3) #17
  unreachable

cleanup.done:                                     ; preds = %if.then13.i.i, %if.then.i.i, %cleanup.action, %invoke.cont
  %4 = phi i1 [ true, %invoke.cont ], [ %cmp, %cleanup.action ], [ %cmp, %if.then.i.i ], [ %cmp, %if.then13.i.i ]
  %5 = load ptr, ptr %ref.tmp, align 8
  %bf.load.i.i13 = load i64, ptr %5, align 8
  %6 = and i64 %bf.load.i.i13, 1152920405095219200
  %cmp.not.i.i14 = icmp eq i64 %6, 1152920405095219200
  br i1 %cmp.not.i.i14, label %_ZN4cvc58internal8TypeNodeD2Ev.exit23, label %if.then.i.i15

if.then.i.i15:                                    ; preds = %cleanup.done
  %bf.value.i.i16 = add i64 %bf.load.i.i13, 1152920405095219200
  %bf.shl.i.i17 = and i64 %bf.value.i.i16, 1152920405095219200
  %bf.clear7.i.i18 = and i64 %bf.load.i.i13, -1152920405095219201
  %bf.set.i.i19 = or disjoint i64 %bf.shl.i.i17, %bf.clear7.i.i18
  store i64 %bf.set.i.i19, ptr %5, align 8
  %cmp12.i.i20 = icmp eq i64 %bf.shl.i.i17, 0
  br i1 %cmp12.i.i20, label %if.then13.i.i21, label %_ZN4cvc58internal8TypeNodeD2Ev.exit23

if.then13.i.i21:                                  ; preds = %if.then.i.i15
  invoke void @_ZN4cvc58internal4expr9NodeValue15markForDeletionEv(ptr noundef nonnull align 8 dereferenceable(16) %5)
          to label %_ZN4cvc58internal8TypeNodeD2Ev.exit23 unwind label %terminate.lpad.i22

terminate.lpad.i22:                               ; preds = %if.then13.i.i21
  %7 = landingpad { ptr, i32 }
          catch ptr null
  %8 = extractvalue { ptr, i32 } %7, 0
  call void @__clang_call_terminate(ptr %8) #17
  unreachable

_ZN4cvc58internal8TypeNodeD2Ev.exit23:            ; preds = %cleanup.done, %if.then.i.i15, %if.then13.i.i21
  br i1 %4, label %return, label %if.end

lpad:                                             ; preds = %lor.rhs, %entry
  %9 = landingpad { ptr, i32 }
          cleanup
  br label %ehcleanup

lpad4:                                            ; preds = %invoke.cont3
  %10 = landingpad { ptr, i32 }
          cleanup
  call void @_ZN4cvc58internal8TypeNodeD2Ev(ptr noundef nonnull align 8 dereferenceable(8) %ref.tmp2) #16
  br label %ehcleanup

ehcleanup:                                        ; preds = %lpad4, %lpad
  %.pn = phi { ptr, i32 } [ %10, %lpad4 ], [ %9, %lpad ]
  call void @_ZN4cvc58internal8TypeNodeD2Ev(ptr noundef nonnull align 8 dereferenceable(8) %ref.tmp) #16
  resume { ptr, i32 } %.pn

if.end:                                           ; preds = %_ZN4cvc58internal8TypeNodeD2Ev.exit23
  %11 = load ptr, ptr %node, align 8
  %d_kind.i = getelementptr inbounds i8, ptr %11, i64 8
  %bf.load.i = load i16, ptr %d_kind.i, align 8
  %bf.clear.i = and i16 %bf.load.i, 1023
  switch i16 %bf.clear.i, label %if.end24 [
    i16 90, label %return
    i16 89, label %return
    i16 88, label %return
    i16 87, label %return
    i16 86, label %return
    i16 83, label %return
    i16 23, label %return
  ]

if.end24:                                         ; preds = %if.end
  br label %return

return:                                           ; preds = %if.end, %if.end, %if.end, %if.end, %if.end, %if.end, %if.end, %_ZN4cvc58internal8TypeNodeD2Ev.exit23, %if.end24
  %retval.0 = phi i1 [ false, %if.end24 ], [ false, %_ZN4cvc58internal8TypeNodeD2Ev.exit23 ], [ true, %if.end ], [ true, %if.end ], [ true, %if.end ], [ true, %if.end ], [ true, %if.end ], [ true, %if.end ], [ true, %if.end ]
  ret i1 %retval.0
}